target datalayout = "e-m:e-p270:32:32-p271:32:32-p272:64:64-i64:64-i128:128-f80:128-n8:16:32:64-S128"
target triple = "x86_64-pc-linux-gnu"

%struct.XLogCtlData = type { %struct.XLogCtlInsert, %struct.XLogwrtRqst, i64, %struct.FullTransactionId, i64, i64, i64, %struct.pg_atomic_uint64, i64, i64, %struct.pg_atomic_uint64, %struct.pg_atomic_uint64, %struct.pg_atomic_uint64, i64, ptr, ptr, i32, i32, i32, i32, i8, i8, i64, i64, %struct.CheckPoint, i64, i8 }
%struct.XLogCtlInsert = type { i8, i64, i64, [128 x i8], i64, i8, i32, i64, ptr }
%struct.XLogwrtRqst = type { i64, i64 }
%struct.FullTransactionId = type { i64 }
%struct.pg_atomic_uint64 = type { i64 }
%struct.CheckPoint = type { i64, i32, i32, i8, i32, %struct.FullTransactionId, i32, i32, i32, i32, i32, i32, i32, i64, i32, i32, i32 }

@wal_segment_size = dso_local global i32 16777216, align 4
@XLogCtl = internal global ptr null, align 8
@.str.14 = private unnamed_addr constant [7 x i8] c"xlog.c\00", align 1
@__func__.GetXLogInsertRecPtr = private unnamed_addr constant [20 x i8] c"GetXLogInsertRecPtr\00", align 1
@UsableBytesInSegment = internal global i32 0, align 4

; Function Attrs: nounwind uwtable
define internal i64 @XLogBytePosToRecPtr(i64 noundef %0) #0 {
  %2 = alloca i64, align 8
  %3 = alloca i64, align 8
  %4 = alloca i64, align 8
  %5 = alloca i64, align 8
  %6 = alloca i32, align 4
  %7 = alloca i64, align 8
  store i64 %0, ptr %2, align 8
  call void @llvm.lifetime.start.p0(i64 8, ptr %3) #16
  call void @llvm.lifetime.start.p0(i64 8, ptr %4) #16
  call void @llvm.lifetime.start.p0(i64 8, ptr %5) #16
  call void @llvm.lifetime.start.p0(i64 4, ptr %6) #16
  call void @llvm.lifetime.start.p0(i64 8, ptr %7) #16
  %8 = load i64, ptr %2, align 8
  %9 = load i32, ptr @UsableBytesInSegment, align 4
  %10 = sext i32 %9 to i64
  %11 = udiv i64 %8, %10
  store i64 %11, ptr %3, align 8
  %12 = load i64, ptr %2, align 8
  %13 = load i32, ptr @UsableBytesInSegment, align 4
  %14 = sext i32 %13 to i64
  %15 = urem i64 %12, %14
  store i64 %15, ptr %5, align 8
  %16 = load i64, ptr %5, align 8
  %17 = icmp ult i64 %16, 8152
  br i1 %17, label %18, label %22

18:                                               ; preds = %1
  %19 = load i64, ptr %5, align 8
  %20 = add i64 %19, 40
  %21 = trunc i64 %20 to i32
  store i32 %21, ptr %6, align 4
  br label %38

22:                                               ; preds = %1
  store i32 8192, ptr %6, align 4
  %23 = load i64, ptr %5, align 8
  %24 = sub i64 %23, 8152
  store i64 %24, ptr %5, align 8
  %25 = load i64, ptr %5, align 8
  %26 = udiv i64 %25, 8168
  store i64 %26, ptr %4, align 8
  %27 = load i64, ptr %5, align 8
  %28 = urem i64 %27, 8168
  store i64 %28, ptr %5, align 8
  %29 = load i64, ptr %4, align 8
  %30 = mul i64 %29, 8192
  %31 = load i64, ptr %5, align 8
  %32 = add i64 %30, %31
  %33 = add i64 %32, 24
  %34 = load i32, ptr %6, align 4
  %35 = zext i32 %34 to i64
  %36 = add i64 %35, %33
  %37 = trunc i64 %36 to i32
  store i32 %37, ptr %6, align 4
  br label %38

38:                                               ; preds = %22, %18
  %39 = load i64, ptr %3, align 8
  %40 = load i32, ptr @wal_segment_size, align 4
  %41 = sext i32 %40 to i64
  %42 = mul i64 %39, %41
  %43 = load i32, ptr %6, align 4
  %44 = zext i32 %43 to i64
  %45 = add i64 %42, %44
  store i64 %45, ptr %7, align 8
  %46 = load i64, ptr %7, align 8
  call void @llvm.lifetime.end.p0(i64 8, ptr %7) #16
  call void @llvm.lifetime.end.p0(i64 4, ptr %6) #16
  call void @llvm.lifetime.end.p0(i64 8, ptr %5) #16
  call void @llvm.lifetime.end.p0(i64 8, ptr %4) #16
  call void @llvm.lifetime.end.p0(i64 8, ptr %3) #16
  ret i64 %46
}

; Function Attrs: inlinehint nounwind uwtable
define internal i32 @tas(ptr noundef %0) #6 {
  %2 = alloca ptr, align 8
  %3 = alloca i8, align 1
  store ptr %0, ptr %2, align 8
  call void @llvm.lifetime.start.p0(i64 1, ptr %3) #16
  store i8 1, ptr %3, align 1
  %4 = load i8, ptr %3, align 1
  %5 = load ptr, ptr %2, align 8
  %6 = call i8 asm sideeffect "\09lock\09\09\09\0A\09xchgb\09$0,$1\09\0A", "=q,=*m,0,*m,~{memory},~{cc},~{dirflag},~{fpsr},~{flags}"(ptr elementtype(i8) %5, i8 %4, ptr elementtype(i8) %5) #16, !srcloc !18
  store i8 %6, ptr %3, align 1
  %7 = load i8, ptr %3, align 1
  %8 = zext i8 %7 to i32
  call void @llvm.lifetime.end.p0(i64 1, ptr %3) #16
  ret i32 %8
}

; Function Attrs: nounwind uwtable
define dso_local i64 @GetXLogInsertRecPtr() #0 {
  %1 = alloca ptr, align 8
  %2 = alloca i64, align 8
  call void @llvm.lifetime.start.p0(i64 8, ptr %1) #16
  %3 = load ptr, ptr @XLogCtl, align 8
  %4 = getelementptr inbounds nuw %struct.XLogCtlData, ptr %3, i32 0, i32 0
  store ptr %4, ptr %1, align 8
  call void @llvm.lifetime.start.p0(i64 8, ptr %2) #16
  %5 = load ptr, ptr %1, align 8
  %6 = getelementptr inbounds nuw %struct.XLogCtlInsert, ptr %5, i32 0, i32 0
  %7 = call i32 @tas(ptr noundef %6)
  %8 = icmp ne i32 %7, 0
  br i1 %8, label %9, label %13

9:                                                ; preds = %0
  %10 = load ptr, ptr %1, align 8
  %11 = getelementptr inbounds nuw %struct.XLogCtlInsert, ptr %10, i32 0, i32 0
  %12 = call i32 @s_lock(ptr noundef %11, ptr noundef @.str.14, i32 noundef 9464, ptr noundef @__func__.GetXLogInsertRecPtr)
  br label %14

13:                                               ; preds = %0
  br label %14

14:                                               ; preds = %13, %9
  %15 = load ptr, ptr %1, align 8
  %16 = getelementptr inbounds nuw %struct.XLogCtlInsert, ptr %15, i32 0, i32 1
  %17 = load i64, ptr %16, align 8
  store i64 %17, ptr %2, align 8
  br label %18

18:                                               ; preds = %14
  call void asm sideeffect "", "~{memory},~{dirflag},~{fpsr},~{flags}"() #16, !srcloc !97
  %19 = load ptr, ptr %1, align 8
  %20 = getelementptr inbounds nuw %struct.XLogCtlInsert, ptr %19, i32 0, i32 0
  store i8 0, ptr %20, align 8
  br label %21

21:                                               ; preds = %18
  br label %22

22:                                               ; preds = %21
  %23 = load i64, ptr %2, align 8
  %24 = call i64 @XLogBytePosToRecPtr(i64 noundef %23)
  call void @llvm.lifetime.end.p0(i64 8, ptr %2) #16
  call void @llvm.lifetime.end.p0(i64 8, ptr %1) #16
  ret i64 %24
}