; Function Attrs: nounwind uwtable
define dso_local i64 @GetXLogInsertRecPtr() local_unnamed_addr #0 {
  %1 = load ptr, ptr @XLogCtl, align 8
  %2 = tail call i8 asm sideeffect "\09lock\09\09\09\0A\09xchgb\09$0,$1\09\0A", "=q,=*m,0,*m,~{memory},~{cc},~{dirflag},~{fpsr},~{flags}"(ptr elementtype(i8) %1, i8 1, ptr elementtype(i8) %1) #26, !srcloc !10
  %.not = icmp eq i8 %2, 0
  br i1 %.not, label %5, label %3

3:                                                ; preds = %0
  %4 = tail call i32 @s_lock(ptr noundef %1, ptr noundef nonnull @.str.14, i32 noundef 9464, ptr noundef nonnull @__func__.GetXLogInsertRecPtr) #26
  br label %5

5:                                                ; preds = %0, %3
  %6 = getelementptr inbounds nuw i8, ptr %1, i64 8
  %7 = load i64, ptr %6, align 8
  tail call void asm sideeffect "", "~{memory},~{dirflag},~{fpsr},~{flags}"() #26, !srcloc !68
  store i8 0, ptr %1, align 8
  %8 = load i32, ptr @UsableBytesInSegment, align 4
  %9 = sext i32 %8 to i64
  %10 = urem i64 %7, %9
  %11 = udiv i64 %7, %9
  %12 = icmp ult i64 %10, 8152
  br i1 %12, label %13, label %15

13:                                               ; preds = %5
  %14 = add nuw nsw i64 %10, 40
  br label %XLogBytePosToRecPtr.exit

15:                                               ; preds = %5
  %16 = add i64 %10, -8152
  %17 = udiv i64 %16, 8168
  %18 = urem i64 %16, 8168
  %19 = shl i64 %17, 13
  %20 = add nuw nsw i64 %18, 8216
  %21 = add i64 %20, %19
  br label %XLogBytePosToRecPtr.exit

XLogBytePosToRecPtr.exit:                         ; preds = %13, %15
  %.0.i = phi i64 [ %14, %13 ], [ %21, %15 ]
  %22 = load i32, ptr @wal_segment_size, align 4
  %23 = sext i32 %22 to i64
  %24 = mul i64 %11, %23
  %25 = and i64 %.0.i, 4294967295
  %26 = add i64 %24, %25
  ret i64 %26
}